; Function Attrs: mustprogress nounwind uwtable
define dso_local void @_Z22getSpanBeginForControlB5cxx11PKcj(ptr dead_on_unwind noalias nonnull writable sret(%"class.std::__cxx11::basic_string") align 8 %0, ptr noundef %1, i32 noundef %2) local_unnamed_addr #0 {
  %4 = alloca %"class.llvm::raw_string_ostream", align 8
  tail call void @_ZNSt7__cxx1112basic_stringIcSt11char_traitsIcESaIcEEC1Ev(ptr noundef nonnull align 8 dereferenceable(32) %0) #18
  %5 = getelementptr inbounds nuw i8, ptr %4, i64 8
  store i32 0, ptr %5, align 8
  %6 = getelementptr inbounds nuw i8, ptr %4, i64 40
  store i8 0, ptr %6, align 8
  %7 = getelementptr inbounds nuw i8, ptr %4, i64 44
  store i32 1, ptr %7, align 4
  %8 = getelementptr inbounds nuw i8, ptr %4, i64 16
  call void @llvm.memset.p0.i64(ptr noundef nonnull align 8 dereferenceable(24) %8, i8 0, i64 24, i1 false)
  store ptr getelementptr inbounds nuw inrange(-16, 104) (i8, ptr @_ZTVN4llvm18raw_string_ostreamE, i64 16), ptr %4, align 8
  %9 = getelementptr inbounds nuw i8, ptr %4, i64 48
  store ptr %0, ptr %9, align 8
  call void @_ZN4llvm11raw_ostream16SetBufferAndModeEPcmNS0_10BufferKindE(ptr noundef nonnull align 8 dereferenceable(56) %4, ptr noundef null, i64 noundef 0, i32 noundef 0) #18
  %10 = getelementptr inbounds nuw i8, ptr %4, i64 24
  %11 = load ptr, ptr %10, align 8
  %12 = getelementptr inbounds nuw i8, ptr %4, i64 32
  %13 = load ptr, ptr %12, align 8
  %14 = ptrtoint ptr %11 to i64
  %15 = ptrtoint ptr %13 to i64
  %16 = sub i64 %14, %15
  %17 = icmp ult i64 %16, 10
  br i1 %17, label %18, label %20

18:                                               ; preds = %3
  %19 = call noundef nonnull align 8 dereferenceable(48) ptr @_ZN4llvm11raw_ostream5writeEPKcm(ptr noundef nonnull align 8 dereferenceable(48) %4, ptr noundef nonnull @.str, i64 noundef 10) #18
  br label %_ZN4llvm11raw_ostreamlsEPKc.exit

20:                                               ; preds = %3
  call void @llvm.memcpy.p0.p0.i64(ptr noundef nonnull align 1 dereferenceable(10) %13, ptr noundef nonnull align 1 dereferenceable(10) @.str, i64 10, i1 false)
  %21 = load ptr, ptr %12, align 8
  %22 = getelementptr inbounds nuw i8, ptr %21, i64 10
  store ptr %22, ptr %12, align 8
  br label %_ZN4llvm11raw_ostreamlsEPKc.exit

_ZN4llvm11raw_ostreamlsEPKc.exit:                 ; preds = %18, %20
  %.0.i.i = phi ptr [ %19, %18 ], [ %4, %20 ]
  %.not.i.i = icmp eq ptr %1, null
  br i1 %.not.i.i, label %_ZN4llvm11raw_ostreamlsEPKc.exit4, label %_ZN4llvm9StringRefC2EPKc.exit.i

_ZN4llvm9StringRefC2EPKc.exit.i:                  ; preds = %_ZN4llvm11raw_ostreamlsEPKc.exit
  %23 = call noundef i64 @strlen(ptr noundef nonnull dereferenceable(1) %1) #18
  %24 = getelementptr inbounds nuw i8, ptr %.0.i.i, i64 24
  %25 = load ptr, ptr %24, align 8
  %26 = getelementptr inbounds nuw i8, ptr %.0.i.i, i64 32
  %27 = load ptr, ptr %26, align 8
  %28 = ptrtoint ptr %25 to i64
  %29 = ptrtoint ptr %27 to i64
  %30 = sub i64 %28, %29
  %31 = icmp ugt i64 %23, %30
  br i1 %31, label %32, label %34

32:                                               ; preds = %_ZN4llvm9StringRefC2EPKc.exit.i
  %33 = call noundef nonnull align 8 dereferenceable(48) ptr @_ZN4llvm11raw_ostream5writeEPKcm(ptr noundef nonnull align 8 dereferenceable(48) %.0.i.i, ptr noundef nonnull %1, i64 noundef %23) #18
  br label %_ZN4llvm11raw_ostreamlsEPKc.exit4

34:                                               ; preds = %_ZN4llvm9StringRefC2EPKc.exit.i
  %.not.i2.i2 = icmp eq i64 %23, 0
  br i1 %.not.i2.i2, label %_ZN4llvm11raw_ostreamlsEPKc.exit4, label %35

35:                                               ; preds = %34
  call void @llvm.memcpy.p0.p0.i64(ptr align 1 %27, ptr nonnull align 1 %1, i64 %23, i1 false)
  %36 = load ptr, ptr %26, align 8
  %37 = getelementptr inbounds i8, ptr %36, i64 %23
  store ptr %37, ptr %26, align 8
  br label %_ZN4llvm11raw_ostreamlsEPKc.exit4

_ZN4llvm11raw_ostreamlsEPKc.exit4:                ; preds = %_ZN4llvm11raw_ostreamlsEPKc.exit, %32, %34, %35
  %.0.i.i3 = phi ptr [ %33, %32 ], [ %.0.i.i, %35 ], [ %.0.i.i, %34 ], [ %.0.i.i, %_ZN4llvm11raw_ostreamlsEPKc.exit ]
  %38 = zext i32 %2 to i64
  %39 = call noundef nonnull align 8 dereferenceable(48) ptr @_ZN4llvm11raw_ostreamlsEm(ptr noundef nonnull align 8 dereferenceable(48) %.0.i.i3, i64 noundef %38) #18
  %40 = getelementptr inbounds nuw i8, ptr %39, i64 24
  %41 = load ptr, ptr %40, align 8
  %42 = getelementptr inbounds nuw i8, ptr %39, i64 32
  %43 = load ptr, ptr %42, align 8
  %44 = ptrtoint ptr %41 to i64
  %45 = ptrtoint ptr %43 to i64
  %46 = sub i64 %44, %45
  %47 = icmp ult i64 %46, 2
  br i1 %47, label %48, label %50

48:                                               ; preds = %_ZN4llvm11raw_ostreamlsEPKc.exit4
  %49 = call noundef nonnull align 8 dereferenceable(48) ptr @_ZN4llvm11raw_ostream5writeEPKcm(ptr noundef nonnull align 8 dereferenceable(48) %39, ptr noundef nonnull @.str.1, i64 noundef 2) #18
  br label %_ZN4llvm11raw_ostreamlsEPKc.exit8

50:                                               ; preds = %_ZN4llvm11raw_ostreamlsEPKc.exit4
  store i16 15906, ptr %43, align 1
  %51 = load ptr, ptr %42, align 8
  %52 = getelementptr inbounds nuw i8, ptr %51, i64 2
  store ptr %52, ptr %42, align 8
  br label %_ZN4llvm11raw_ostreamlsEPKc.exit8

_ZN4llvm11raw_ostreamlsEPKc.exit8:                ; preds = %48, %50
  call void @_ZN4llvm11raw_ostreamD2Ev(ptr noundef nonnull align 8 dereferenceable(56) %4) #18
  ret void
}